; ModuleID = 'source-C-CXX/24/328.cpp'
source_filename = "source-C-CXX/24/328.cpp"
target datalayout = "e-m:e-p270:32:32-p271:32:32-p272:64:64-i64:64-f80:128-n8:16:32:64-S128"
target triple = "x86_64-pc-linux-gnu"

%"class.std::ios_base::Init" = type { i8 }
%"class.std::basic_istream" = type { i32 (...)**, i64, %"class.std::basic_ios" }
%"class.std::basic_ios" = type { %"class.std::ios_base", %"class.std::basic_ostream"*, i8, i8, %"class.std::basic_streambuf"*, %"class.std::ctype"*, %"class.std::num_put"*, %"class.std::num_get"* }
%"class.std::ios_base" = type { i32 (...)**, i64, i64, i32, i32, i32, %"struct.std::ios_base::_Callback_list"*, %"struct.std::ios_base::_Words", [8 x %"struct.std::ios_base::_Words"], i32, %"struct.std::ios_base::_Words"*, %"class.std::locale" }
%"struct.std::ios_base::_Callback_list" = type { %"struct.std::ios_base::_Callback_list"*, void (i32, %"class.std::ios_base"*, i32)*, i32, i32 }
%"struct.std::ios_base::_Words" = type { i8*, i64 }
%"class.std::locale" = type { %"class.std::locale::_Impl"* }
%"class.std::locale::_Impl" = type { i32, %"class.std::locale::facet"**, i64, %"class.std::locale::facet"**, i8** }
%"class.std::locale::facet" = type <{ i32 (...)**, i32, [4 x i8] }>
%"class.std::basic_ostream" = type { i32 (...)**, %"class.std::basic_ios" }
%"class.std::basic_streambuf" = type { i32 (...)**, i8*, i8*, i8*, i8*, i8*, i8*, %"class.std::locale" }
%"class.std::ctype" = type <{ %"class.std::locale::facet.base", [4 x i8], %struct.__locale_struct*, i8, [7 x i8], i32*, i32*, i16*, i8, [256 x i8], [256 x i8], i8, [6 x i8] }>
%"class.std::locale::facet.base" = type <{ i32 (...)**, i32 }>
%struct.__locale_struct = type { [13 x %struct.__locale_data*], i16*, i32*, i32*, [13 x i8*] }
%struct.__locale_data = type opaque
%"class.std::num_put" = type { %"class.std::locale::facet.base", [4 x i8] }
%"class.std::num_get" = type { %"class.std::locale::facet.base", [4 x i8] }

@_ZStL8__ioinit = internal global %"class.std::ios_base::Init" zeroinitializer, align 1
@__dso_handle = external hidden global i8
@_ZSt3cin = external global %"class.std::basic_istream", align 8
@_ZSt4cout = external global %"class.std::basic_ostream", align 8
@llvm.global_ctors = appending global [1 x { i32, void ()*, i8* }] [{ i32, void ()*, i8* } { i32 65535, void ()* @_GLOBAL__sub_I_328.cpp, i8* null }]

declare void @_ZNSt8ios_base4InitC1Ev(%"class.std::ios_base::Init"* nonnull align 1 dereferenceable(1)) unnamed_addr #0

; Function Attrs: nounwind
declare void @_ZNSt8ios_base4InitD1Ev(%"class.std::ios_base::Init"* nonnull align 1 dereferenceable(1)) unnamed_addr #1

; Function Attrs: nofree nounwind
declare i32 @__cxa_atexit(void (i8*)*, i8*, i8*) local_unnamed_addr #2

; Function Attrs: mustprogress norecurse sspstrong uwtable
define dso_local i32 @main() local_unnamed_addr #3 {
  %1 = alloca [50 x i32], align 16
  %2 = alloca i32, align 4
  %3 = bitcast [50 x i32]* %1 to i8*
  call void @llvm.lifetime.start.p0i8(i64 200, i8* nonnull %3) #8
  call void @llvm.memset.p0i8.i64(i8* noundef nonnull align 16 dereferenceable(200) %3, i8 0, i64 200, i1 false)
  %4 = bitcast i32* %2 to i8*
  call void @llvm.lifetime.start.p0i8(i64 4, i8* nonnull %4) #8
  %5 = call nonnull align 8 dereferenceable(16) %"class.std::basic_istream"* @_ZNSirsERi(%"class.std::basic_istream"* nonnull align 8 dereferenceable(16) @_ZSt3cin, i32* nonnull align 4 dereferenceable(4) %2)
  %6 = getelementptr inbounds [50 x i32], [50 x i32]* %1, i64 0, i64 49
  store i32 1, i32* %6, align 4, !tbaa !5
  %7 = load i32, i32* %2, align 4, !tbaa !5
  %8 = icmp slt i32 %7, 1
  br i1 %8, label %9, label %11

9:                                                ; preds = %25, %0
  %10 = phi i64 [ %26, %25 ], [ 48, %0 ]
  br label %75

11:                                               ; preds = %0, %65
  %12 = phi i32 [ %72, %65 ], [ 48, %0 ]
  %13 = phi i32 [ %67, %65 ], [ 0, %0 ]
  %14 = phi i32 [ %73, %65 ], [ 1, %0 ]
  %15 = icmp sgt i32 %12, 49
  br i1 %15, label %16, label %18

16:                                               ; preds = %11
  %17 = zext i32 %12 to i64
  br label %65

18:                                               ; preds = %11
  %19 = sext i32 %12 to i64
  %20 = sub nsw i64 50, %19
  %21 = and i64 %20, 1
  %22 = icmp eq i32 %12, 49
  br i1 %22, label %51, label %23

23:                                               ; preds = %18
  %24 = and i64 %20, -2
  br label %27

25:                                               ; preds = %65
  %26 = sext i32 %72 to i64
  br label %9

27:                                               ; preds = %27, %23
  %28 = phi i64 [ 49, %23 ], [ %48, %27 ]
  %29 = phi i32 [ %13, %23 ], [ %47, %27 ]
  %30 = phi i64 [ %24, %23 ], [ %49, %27 ]
  %31 = getelementptr inbounds [50 x i32], [50 x i32]* %1, i64 0, i64 %28
  %32 = load i32, i32* %31, align 4, !tbaa !5
  %33 = shl nsw i32 %32, 1
  %34 = add nsw i32 %33, %29
  %35 = icmp sgt i32 %34, 9
  %36 = add nsw i32 %34, -10
  %37 = select i1 %35, i32 %36, i32 %34
  %38 = zext i1 %35 to i32
  store i32 %37, i32* %31, align 4, !tbaa !5
  %39 = add nsw i64 %28, -1
  %40 = getelementptr inbounds [50 x i32], [50 x i32]* %1, i64 0, i64 %39
  %41 = load i32, i32* %40, align 4, !tbaa !5
  %42 = shl nsw i32 %41, 1
  %43 = or i32 %42, %38
  %44 = icmp sgt i32 %43, 9
  %45 = add nsw i32 %43, -10
  %46 = select i1 %44, i32 %45, i32 %43
  %47 = zext i1 %44 to i32
  store i32 %46, i32* %40, align 4, !tbaa !5
  %48 = add nsw i64 %28, -2
  %49 = add i64 %30, -2
  %50 = icmp eq i64 %49, 0
  br i1 %50, label %51, label %27, !llvm.loop !9

51:                                               ; preds = %27, %18
  %52 = phi i32 [ undef, %18 ], [ %47, %27 ]
  %53 = phi i64 [ 49, %18 ], [ %48, %27 ]
  %54 = phi i32 [ %13, %18 ], [ %47, %27 ]
  %55 = icmp eq i64 %21, 0
  br i1 %55, label %65, label %56

56:                                               ; preds = %51
  %57 = getelementptr inbounds [50 x i32], [50 x i32]* %1, i64 0, i64 %53
  %58 = load i32, i32* %57, align 4, !tbaa !5
  %59 = shl nsw i32 %58, 1
  %60 = add nsw i32 %59, %54
  %61 = icmp sgt i32 %60, 9
  %62 = add nsw i32 %60, -10
  %63 = select i1 %61, i32 %62, i32 %60
  store i32 %63, i32* %57, align 4, !tbaa !5
  %64 = zext i1 %61 to i32
  br label %65

65:                                               ; preds = %56, %51, %16
  %66 = phi i64 [ %17, %16 ], [ %19, %51 ], [ %19, %56 ]
  %67 = phi i32 [ %13, %16 ], [ %52, %51 ], [ %64, %56 ]
  %68 = getelementptr inbounds [50 x i32], [50 x i32]* %1, i64 0, i64 %66
  %69 = load i32, i32* %68, align 4, !tbaa !5
  %70 = icmp sgt i32 %69, 0
  %71 = sext i1 %70 to i32
  %72 = add nsw i32 %12, %71
  %73 = add nuw i32 %14, 1
  %74 = icmp eq i32 %14, %7
  br i1 %74, label %25, label %11, !llvm.loop !11

75:                                               ; preds = %9, %75
  %76 = phi i64 [ %80, %75 ], [ %10, %9 ]
  %77 = getelementptr inbounds [50 x i32], [50 x i32]* %1, i64 0, i64 %76
  %78 = load i32, i32* %77, align 4, !tbaa !5
  %79 = icmp eq i32 %78, 0
  %80 = add i64 %76, 1
  br i1 %79, label %75, label %81, !llvm.loop !12

81:                                               ; preds = %75
  %82 = trunc i64 %76 to i32
  %83 = icmp slt i32 %82, 50
  br i1 %83, label %84, label %95

84:                                               ; preds = %81
  %85 = shl i64 %76, 32
  %86 = ashr exact i64 %85, 32
  br label %87

87:                                               ; preds = %84, %87
  %88 = phi i64 [ %86, %84 ], [ %92, %87 ]
  %89 = getelementptr inbounds [50 x i32], [50 x i32]* %1, i64 0, i64 %88
  %90 = load i32, i32* %89, align 4, !tbaa !5
  %91 = call nonnull align 8 dereferenceable(8) %"class.std::basic_ostream"* @_ZNSolsEi(%"class.std::basic_ostream"* nonnull align 8 dereferenceable(8) @_ZSt4cout, i32 %90)
  %92 = add nsw i64 %88, 1
  %93 = trunc i64 %92 to i32
  %94 = icmp eq i32 %93, 50
  br i1 %94, label %95, label %87, !llvm.loop !13

95:                                               ; preds = %87, %81
  %96 = load i8*, i8** bitcast (%"class.std::basic_ostream"* @_ZSt4cout to i8**), align 8, !tbaa !14
  %97 = getelementptr i8, i8* %96, i64 -24
  %98 = bitcast i8* %97 to i64*
  %99 = load i64, i64* %98, align 8
  %100 = add nsw i64 %99, 240
  %101 = getelementptr inbounds i8, i8* bitcast (%"class.std::basic_ostream"* @_ZSt4cout to i8*), i64 %100
  %102 = bitcast i8* %101 to %"class.std::ctype"**
  %103 = load %"class.std::ctype"*, %"class.std::ctype"** %102, align 8, !tbaa !16
  %104 = icmp eq %"class.std::ctype"* %103, null
  br i1 %104, label %105, label %106

105:                                              ; preds = %95
  call void @_ZSt16__throw_bad_castv() #9
  unreachable

106:                                              ; preds = %95
  %107 = getelementptr inbounds %"class.std::ctype", %"class.std::ctype"* %103, i64 0, i32 8
  %108 = load i8, i8* %107, align 8, !tbaa !20
  %109 = icmp eq i8 %108, 0
  br i1 %109, label %113, label %110

110:                                              ; preds = %106
  %111 = getelementptr inbounds %"class.std::ctype", %"class.std::ctype"* %103, i64 0, i32 9, i64 10
  %112 = load i8, i8* %111, align 1, !tbaa !22
  br label %119

113:                                              ; preds = %106
  call void @_ZNKSt5ctypeIcE13_M_widen_initEv(%"class.std::ctype"* nonnull align 8 dereferenceable(570) %103)
  %114 = bitcast %"class.std::ctype"* %103 to i8 (%"class.std::ctype"*, i8)***
  %115 = load i8 (%"class.std::ctype"*, i8)**, i8 (%"class.std::ctype"*, i8)*** %114, align 8, !tbaa !14
  %116 = getelementptr inbounds i8 (%"class.std::ctype"*, i8)*, i8 (%"class.std::ctype"*, i8)** %115, i64 6
  %117 = load i8 (%"class.std::ctype"*, i8)*, i8 (%"class.std::ctype"*, i8)** %116, align 8
  %118 = call signext i8 %117(%"class.std::ctype"* nonnull align 8 dereferenceable(570) %103, i8 signext 10)
  br label %119

119:                                              ; preds = %110, %113
  %120 = phi i8 [ %112, %110 ], [ %118, %113 ]
  %121 = call nonnull align 8 dereferenceable(8) %"class.std::basic_ostream"* @_ZNSo3putEc(%"class.std::basic_ostream"* nonnull align 8 dereferenceable(8) @_ZSt4cout, i8 signext %120)
  %122 = call nonnull align 8 dereferenceable(8) %"class.std::basic_ostream"* @_ZNSo5flushEv(%"class.std::basic_ostream"* nonnull align 8 dereferenceable(8) %121)
  call void @llvm.lifetime.end.p0i8(i64 4, i8* nonnull %4) #8
  call void @llvm.lifetime.end.p0i8(i64 200, i8* nonnull %3) #8
  ret i32 0
}

; Function Attrs: argmemonly mustprogress nofree nosync nounwind willreturn
declare void @llvm.lifetime.start.p0i8(i64 immarg, i8* nocapture) #4

; Function Attrs: argmemonly mustprogress nofree nounwind willreturn writeonly
declare void @llvm.memset.p0i8.i64(i8* nocapture writeonly, i8, i64, i1 immarg) #5

declare nonnull align 8 dereferenceable(16) %"class.std::basic_istream"* @_ZNSirsERi(%"class.std::basic_istream"* nonnull align 8 dereferenceable(16), i32* nonnull align 4 dereferenceable(4)) local_unnamed_addr #0

declare nonnull align 8 dereferenceable(8) %"class.std::basic_ostream"* @_ZNSolsEi(%"class.std::basic_ostream"* nonnull align 8 dereferenceable(8), i32) local_unnamed_addr #0

; Function Attrs: argmemonly mustprogress nofree nosync nounwind willreturn
declare void @llvm.lifetime.end.p0i8(i64 immarg, i8* nocapture) #4

declare nonnull align 8 dereferenceable(8) %"class.std::basic_ostream"* @_ZNSo3putEc(%"class.std::basic_ostream"* nonnull align 8 dereferenceable(8), i8 signext) local_unnamed_addr #0

declare nonnull align 8 dereferenceable(8) %"class.std::basic_ostream"* @_ZNSo5flushEv(%"class.std::basic_ostream"* nonnull align 8 dereferenceable(8)) local_unnamed_addr #0

; Function Attrs: noreturn
declare void @_ZSt16__throw_bad_castv() local_unnamed_addr #6

declare void @_ZNKSt5ctypeIcE13_M_widen_initEv(%"class.std::ctype"* nonnull align 8 dereferenceable(570)) local_unnamed_addr #0

; Function Attrs: sspstrong uwtable
define internal void @_GLOBAL__sub_I_328.cpp() #7 section ".text.startup" {
  tail call void @_ZNSt8ios_base4InitC1Ev(%"class.std::ios_base::Init"* nonnull align 1 dereferenceable(1) @_ZStL8__ioinit)
  %1 = tail call i32 @__cxa_atexit(void (i8*)* bitcast (void (%"class.std::ios_base::Init"*)* @_ZNSt8ios_base4InitD1Ev to void (i8*)*), i8* getelementptr inbounds (%"class.std::ios_base::Init", %"class.std::ios_base::Init"* @_ZStL8__ioinit, i64 0, i32 0), i8* nonnull @__dso_handle) #8
  ret void
}


!llvm.module.flags = !{!0, !1, !2, !3}
!llvm.ident = !{!4}

!0 = !{i32 1, !"wchar_size", i32 4}
!1 = !{i32 7, !"PIC Level", i32 2}
!2 = !{i32 7, !"PIE Level", i32 2}
!3 = !{i32 7, !"uwtable", i32 1}
!4 = !{!"clang version 13.0.0"}
!5 = !{!6, !6, i64 0}
!6 = !{!"int", !7, i64 0}
!7 = !{!"omnipotent char", !8, i64 0}
!8 = !{!"Simple C++ TBAA"}
!9 = distinct !{!9, !10}
!10 = !{!"llvm.loop.mustprogress"}
!11 = distinct !{!11, !10}
!12 = distinct !{!12, !10}
!13 = distinct !{!13, !10}
!14 = !{!15, !15, i64 0}
!15 = !{!"vtable pointer", !8, i64 0}
!16 = !{!17, !18, i64 240}
!17 = !{!"_ZTSSt9basic_iosIcSt11char_traitsIcEE", !18, i64 216, !7, i64 224, !19, i64 225, !18, i64 232, !18, i64 240, !18, i64 248, !18, i64 256}
!18 = !{!"any pointer", !7, i64 0}
!19 = !{!"bool", !7, i64 0}
!20 = !{!21, !7, i64 56}
!21 = !{!"_ZTSSt5ctypeIcE", !18, i64 16, !19, i64 24, !18, i64 32, !18, i64 40, !18, i64 48, !7, i64 56, !7, i64 57, !7, i64 313, !7, i64 569}
!22 = !{!7, !7, i64 0}
